; Function Attrs: mustprogress nofree norecurse nosync nounwind willreturn memory(argmem: read) uwtable
define hidden noundef nonnull ptr @_ZNK11ConstMethod26parameter_annotations_addrEv(ptr noundef nonnull readonly align 8 dereferenceable(52) %0) local_unnamed_addr #1 align 2 {
  %2 = getelementptr inbounds i8, ptr %0, i64 28
  %3 = load i32, ptr %2, align 4
  %4 = and i32 %3, 128
  %.not = icmp eq i32 %4, 0
  %spec.select = select i1 %.not, i64 -1, i64 -2
  %5 = getelementptr inbounds i8, ptr %0, i64 24
  %6 = load i32, ptr %5, align 8
  %7 = sext i32 %6 to i64
  %8 = getelementptr inbounds i64, ptr %0, i64 %7
  %9 = getelementptr inbounds ptr, ptr %8, i64 %spec.select
  ret ptr %9
}